target datalayout = "e-m:e-p270:32:32-p271:32:32-p272:64:64-i64:64-i128:128-f80:128-n8:16:32:64-S128"
target triple = "x86_64-unknown-linux-gnu"

%"struct.EA::StdC::SprintfLocal::SnprintfContext32" = type { ptr, i64, i64 }

; Function Attrs: mustprogress nounwind uwtable
define dso_local noundef i32 @_ZN2EA4StdC12SprintfLocal14StringWriter32EPKDimPvNS0_18WriteFunctionStateE(ptr noalias noundef %pData, i64 noundef %nCount, ptr noalias noundef %pContext32, i32 noundef %0) #0 {
entry:
  %pData.addr = alloca ptr, align 8
  %nCount.addr = alloca i64, align 8
  %pContext32.addr = alloca ptr, align 8
  %.addr = alloca i32, align 4
  %pSnprintfContext32 = alloca ptr, align 8
  store ptr %pData, ptr %pData.addr, align 8
  store i64 %nCount, ptr %nCount.addr, align 8
  store ptr %pContext32, ptr %pContext32.addr, align 8
  store i32 %0, ptr %.addr, align 4
  %1 = load ptr, ptr %pContext32.addr, align 8
  store ptr %1, ptr %pSnprintfContext32, align 8
  %2 = load i64, ptr %nCount.addr, align 8
  %3 = load ptr, ptr %pSnprintfContext32, align 8
  %mnMaxCount = getelementptr inbounds %"struct.EA::StdC::SprintfLocal::SnprintfContext32", ptr %3, i32 0, i32 2
  %4 = load i64, ptr %mnMaxCount, align 8
  %5 = load ptr, ptr %pSnprintfContext32, align 8
  %mnCount = getelementptr inbounds %"struct.EA::StdC::SprintfLocal::SnprintfContext32", ptr %5, i32 0, i32 1
  %6 = load i64, ptr %mnCount, align 8
  %sub = sub i64 %4, %6
  %cmp = icmp ugt i64 %2, %sub
  br i1 %cmp, label %if.then, label %if.end

if.then:                                          ; preds = %entry
  %7 = load ptr, ptr %pSnprintfContext32, align 8
  %mnMaxCount1 = getelementptr inbounds %"struct.EA::StdC::SprintfLocal::SnprintfContext32", ptr %7, i32 0, i32 2
  %8 = load i64, ptr %mnMaxCount1, align 8
  %9 = load ptr, ptr %pSnprintfContext32, align 8
  %mnCount2 = getelementptr inbounds %"struct.EA::StdC::SprintfLocal::SnprintfContext32", ptr %9, i32 0, i32 1
  %10 = load i64, ptr %mnCount2, align 8
  %sub3 = sub i64 %8, %10
  store i64 %sub3, ptr %nCount.addr, align 8
  br label %if.end

if.end:                                           ; preds = %if.then, %entry
  %11 = load ptr, ptr %pSnprintfContext32, align 8
  %mpDestination = getelementptr inbounds %"struct.EA::StdC::SprintfLocal::SnprintfContext32", ptr %11, i32 0, i32 0
  %12 = load ptr, ptr %mpDestination, align 8
  %13 = load ptr, ptr %pSnprintfContext32, align 8
  %mnCount4 = getelementptr inbounds %"struct.EA::StdC::SprintfLocal::SnprintfContext32", ptr %13, i32 0, i32 1
  %14 = load i64, ptr %mnCount4, align 8
  %add.ptr = getelementptr inbounds i32, ptr %12, i64 %14
  %15 = load ptr, ptr %pData.addr, align 8
  %16 = load i64, ptr %nCount.addr, align 8
  %mul = mul i64 %16, 4
  call void @llvm.memcpy.p0.p0.i64(ptr align 4 %add.ptr, ptr align 4 %15, i64 %mul, i1 false)
  %17 = load i64, ptr %nCount.addr, align 8
  %18 = load ptr, ptr %pSnprintfContext32, align 8
  %mnCount5 = getelementptr inbounds %"struct.EA::StdC::SprintfLocal::SnprintfContext32", ptr %18, i32 0, i32 1
  %19 = load i64, ptr %mnCount5, align 8
  %add = add i64 %19, %17
  store i64 %add, ptr %mnCount5, align 8
  %20 = load i64, ptr %nCount.addr, align 8
  %conv = trunc i64 %20 to i32
  ret i32 %conv
}