; Function Attrs: mustprogress nofree norecurse nosync nounwind willreturn memory(readwrite, inaccessiblemem: none) uwtable
define dso_local noundef i32 @_ZN2EA4StdC12SprintfLocal14StringWriter32EPKDimPvNS0_18WriteFunctionStateE(ptr noalias noundef readonly captures(none) %pData, i64 noundef %nCount, ptr noalias noundef captures(none) %pContext32, i32 noundef %0) local_unnamed_addr #2 {
entry:
  %mnMaxCount = getelementptr inbounds nuw i8, ptr %pContext32, i64 16
  %1 = load i64, ptr %mnMaxCount, align 8
  %mnCount = getelementptr inbounds nuw i8, ptr %pContext32, i64 8
  %2 = load i64, ptr %mnCount, align 8
  %sub = sub i64 %1, %2
  %spec.select = tail call i64 @llvm.umin.i64(i64 %nCount, i64 %sub)
  %3 = load ptr, ptr %pContext32, align 8
  %add.ptr = getelementptr inbounds i32, ptr %3, i64 %2
  %mul = shl i64 %spec.select, 2
  tail call void @llvm.memcpy.p0.p0.i64(ptr align 4 %add.ptr, ptr align 4 %pData, i64 %mul, i1 false)
  %add = add i64 %spec.select, %2
  store i64 %add, ptr %mnCount, align 8
  %conv = trunc i64 %spec.select to i32
  ret i32 %conv
}